target datalayout = "e-m:e-p270:32:32-p271:32:32-p272:64:64-i64:64-i128:128-f80:128-n8:16:32:64-S128"
target triple = "x86_64-pc-linux-gnu"

%"class.VrmlTranslator::Buffer" = type <{ ptr, ptr, i32, i32, i32, i32, i32, [4 x i8], ptr, i8, [7 x i8] }>

; Function Attrs: mustprogress nounwind uwtable
define void @_ZN14VrmlTranslator6BufferC2EPS0_(ptr noundef nonnull align 8 dereferenceable(49) %0, ptr noundef %1) unnamed_addr #0 align 2 {
  %3 = alloca ptr, align 8
  %4 = alloca ptr, align 8
  store ptr %0, ptr %3, align 8
  store ptr %1, ptr %4, align 8
  %5 = load ptr, ptr %3, align 8
  store ptr getelementptr inbounds ({ [10 x ptr] }, ptr @_ZTVN14VrmlTranslator6BufferE, i32 0, i32 0, i32 2), ptr %5, align 8
  %6 = load ptr, ptr %4, align 8
  %7 = getelementptr inbounds %"class.VrmlTranslator::Buffer", ptr %6, i32 0, i32 1
  %8 = load ptr, ptr %7, align 8
  %9 = getelementptr inbounds %"class.VrmlTranslator::Buffer", ptr %5, i32 0, i32 1
  store ptr %8, ptr %9, align 8
  %10 = load ptr, ptr %4, align 8
  %11 = getelementptr inbounds %"class.VrmlTranslator::Buffer", ptr %10, i32 0, i32 2
  %12 = load i32, ptr %11, align 8
  %13 = getelementptr inbounds %"class.VrmlTranslator::Buffer", ptr %5, i32 0, i32 2
  store i32 %12, ptr %13, align 8
  %14 = load ptr, ptr %4, align 8
  %15 = getelementptr inbounds %"class.VrmlTranslator::Buffer", ptr %14, i32 0, i32 1
  store ptr null, ptr %15, align 8
  %16 = load ptr, ptr %4, align 8
  %17 = getelementptr inbounds %"class.VrmlTranslator::Buffer", ptr %16, i32 0, i32 3
  %18 = load i32, ptr %17, align 4
  %19 = getelementptr inbounds %"class.VrmlTranslator::Buffer", ptr %5, i32 0, i32 3
  store i32 %18, ptr %19, align 4
  %20 = load ptr, ptr %4, align 8
  %21 = getelementptr inbounds %"class.VrmlTranslator::Buffer", ptr %20, i32 0, i32 4
  %22 = load i32, ptr %21, align 8
  %23 = getelementptr inbounds %"class.VrmlTranslator::Buffer", ptr %5, i32 0, i32 4
  store i32 %22, ptr %23, align 8
  %24 = load ptr, ptr %4, align 8
  %25 = getelementptr inbounds %"class.VrmlTranslator::Buffer", ptr %24, i32 0, i32 5
  %26 = load i32, ptr %25, align 4
  %27 = getelementptr inbounds %"class.VrmlTranslator::Buffer", ptr %5, i32 0, i32 5
  store i32 %26, ptr %27, align 4
  %28 = load ptr, ptr %4, align 8
  %29 = getelementptr inbounds %"class.VrmlTranslator::Buffer", ptr %28, i32 0, i32 6
  %30 = load i32, ptr %29, align 8
  %31 = getelementptr inbounds %"class.VrmlTranslator::Buffer", ptr %5, i32 0, i32 6
  store i32 %30, ptr %31, align 8
  %32 = load ptr, ptr %4, align 8
  %33 = getelementptr inbounds %"class.VrmlTranslator::Buffer", ptr %32, i32 0, i32 8
  %34 = load ptr, ptr %33, align 8
  %35 = getelementptr inbounds %"class.VrmlTranslator::Buffer", ptr %5, i32 0, i32 8
  store ptr %34, ptr %35, align 8
  %36 = load ptr, ptr %4, align 8
  %37 = getelementptr inbounds %"class.VrmlTranslator::Buffer", ptr %36, i32 0, i32 8
  store ptr null, ptr %37, align 8
  %38 = load ptr, ptr %4, align 8
  %39 = getelementptr inbounds %"class.VrmlTranslator::Buffer", ptr %38, i32 0, i32 9
  %40 = load i8, ptr %39, align 8
  %41 = trunc i8 %40 to i1
  %42 = getelementptr inbounds %"class.VrmlTranslator::Buffer", ptr %5, i32 0, i32 9
  %43 = zext i1 %41 to i8
  store i8 %43, ptr %42, align 8
  ret void
}