; Function Attrs: mustprogress nofree norecurse nosync nounwind willreturn memory(argmem: readwrite) uwtable
define void @_ZN14VrmlTranslator6BufferC2EPS0_(ptr nocapture noundef nonnull writeonly align 8 dereferenceable(49) %0, ptr nocapture noundef %1) unnamed_addr #14 align 2 {
  store ptr getelementptr inbounds ({ [10 x ptr] }, ptr @_ZTVN14VrmlTranslator6BufferE, i64 0, i32 0, i64 2), ptr %0, align 8
  %3 = getelementptr inbounds i8, ptr %1, i64 8
  %4 = load ptr, ptr %3, align 8
  %5 = getelementptr inbounds i8, ptr %0, i64 8
  store ptr %4, ptr %5, align 8
  %6 = getelementptr inbounds i8, ptr %1, i64 16
  %7 = load i32, ptr %6, align 8
  %8 = getelementptr inbounds i8, ptr %0, i64 16
  store i32 %7, ptr %8, align 8
  store ptr null, ptr %3, align 8
  %9 = getelementptr inbounds i8, ptr %1, i64 20
  %10 = load i32, ptr %9, align 4
  %11 = getelementptr inbounds i8, ptr %0, i64 20
  store i32 %10, ptr %11, align 4
  %12 = getelementptr inbounds i8, ptr %1, i64 24
  %13 = load i32, ptr %12, align 8
  %14 = getelementptr inbounds i8, ptr %0, i64 24
  store i32 %13, ptr %14, align 8
  %15 = getelementptr inbounds i8, ptr %1, i64 28
  %16 = load i32, ptr %15, align 4
  %17 = getelementptr inbounds i8, ptr %0, i64 28
  store i32 %16, ptr %17, align 4
  %18 = getelementptr inbounds i8, ptr %1, i64 32
  %19 = load i32, ptr %18, align 8
  %20 = getelementptr inbounds i8, ptr %0, i64 32
  store i32 %19, ptr %20, align 8
  %21 = getelementptr inbounds i8, ptr %1, i64 40
  %22 = load ptr, ptr %21, align 8
  %23 = getelementptr inbounds i8, ptr %0, i64 40
  store ptr %22, ptr %23, align 8
  store ptr null, ptr %21, align 8
  %24 = getelementptr inbounds i8, ptr %1, i64 48
  %25 = load i8, ptr %24, align 8
  %26 = and i8 %25, 1
  %27 = getelementptr inbounds i8, ptr %0, i64 48
  store i8 %26, ptr %27, align 8
  ret void
}